; Function Attrs: mustprogress uwtable
define hidden noundef i32 @_ZNK7datalog11udoc_plugin13num_sort_bitsEP4sort(ptr noundef nonnull align 8 dereferenceable(129) %0, ptr noundef %1) local_unnamed_addr #3 align 2 {
  %3 = alloca i64, align 8
  %4 = getelementptr inbounds nuw i8, ptr %0, i64 48
  %5 = tail call noundef zeroext i1 @_ZNK14bv_recognizers10is_bv_sortEPK4sort(ptr noundef nonnull align 4 dereferenceable(4) %4, ptr noundef %1)
  br i1 %5, label %6, label %17

6:                                                ; preds = %2
  %7 = getelementptr inbounds nuw i8, ptr %1, i64 24
  %8 = load ptr, ptr %7, align 8, !tbaa !54
  %9 = getelementptr inbounds nuw i8, ptr %8, i64 8
  %10 = load ptr, ptr %9, align 8, !tbaa !58
  %11 = getelementptr inbounds nuw i8, ptr %10, i64 8
  %12 = load i8, ptr %11, align 8, !tbaa !61
  %.not.i.i.i.i = icmp eq i8 %12, 0
  br i1 %.not.i.i.i.i, label %_ZNK7bv_util11get_bv_sizeEPK4sort.exit, label %13

13:                                               ; preds = %6
  %14 = tail call ptr @__cxa_allocate_exception(i64 16) #24
  store ptr getelementptr inbounds nuw inrange(-16, 24) (i8, ptr @_ZTVSt18bad_variant_access, i64 16), ptr %14, align 8, !tbaa !3
  %15 = getelementptr inbounds nuw i8, ptr %14, i64 8
  store ptr @.str.7, ptr %15, align 8, !tbaa !63
  tail call void @__cxa_throw(ptr nonnull %14, ptr nonnull @_ZTISt18bad_variant_access, ptr nonnull @_ZNSt9exceptionD2Ev) #25
  unreachable

_ZNK7bv_util11get_bv_sizeEPK4sort.exit:           ; preds = %6
  %16 = load i32, ptr %10, align 4, !tbaa !14
  br label %30

17:                                               ; preds = %2
  %18 = getelementptr inbounds nuw i8, ptr %0, i64 40
  %19 = load ptr, ptr %18, align 8, !tbaa !66
  %20 = getelementptr inbounds nuw i8, ptr %19, i64 840
  %21 = load ptr, ptr %20, align 8, !tbaa !83
  %22 = icmp eq ptr %1, %21
  br i1 %22, label %30, label %23

23:                                               ; preds = %17
  call void @llvm.lifetime.start.p0(i64 8, ptr nonnull %3) #24
  %24 = getelementptr inbounds nuw i8, ptr %0, i64 72
  %25 = call noundef zeroext i1 @_ZNK7datalog12dl_decl_util12try_get_sizeEPK4sortRm(ptr noundef nonnull align 8 dereferenceable(28) %24, ptr noundef %1, ptr noundef nonnull align 8 dereferenceable(8) %3)
  br i1 %25, label %thread-pre-split, label %26

thread-pre-split:                                 ; preds = %23
  %.pr = load i64, ptr %3, align 8, !tbaa !143
  %.not9 = icmp eq i64 %.pr, 0
  br i1 %.not9, label %.loopexit, label %.loopexit.loopexit

26:                                               ; preds = %23
  call void @_Z26notify_assertion_violationPKciS0_(ptr noundef nonnull @.str, i32 noundef 284, ptr noundef nonnull @.str.2)
  call void @_Z18invoke_exit_actionj(i32 noundef 114)
  br label %.loopexit

.loopexit.loopexit:                               ; preds = %thread-pre-split
  %27 = call range(i64 0, 65) i64 @llvm.ctlz.i64(i64 %.pr, i1 true)
  %28 = trunc nuw nsw i64 %27 to i32
  %29 = sub nuw nsw i32 64, %28
  br label %.loopexit

.loopexit:                                        ; preds = %.loopexit.loopexit, %thread-pre-split, %26
  %.1 = phi i32 [ 0, %26 ], [ 0, %thread-pre-split ], [ %29, %.loopexit.loopexit ]
  call void @llvm.lifetime.end.p0(i64 8, ptr nonnull %3) #24
  br label %30

30:                                               ; preds = %17, %.loopexit, %_ZNK7bv_util11get_bv_sizeEPK4sort.exit
  %.07 = phi i32 [ %16, %_ZNK7bv_util11get_bv_sizeEPK4sort.exit ], [ %.1, %.loopexit ], [ 1, %17 ]
  ret i32 %.07
}